(lp0
(lp1
F0.6
acnumpy.core.multiarray
_reconstruct
p2
(cnumpy
ndarray
p3
(I0
tp4
S'b'
p5
tp6
Rp7
(I1
(L1L
L1L
tp8
cnumpy
dtype
p9
(S'f4'
p10
I0
I1
tp11
Rp12
(I3
S'<'
p13
NNNI-1
I-1
I0
tp14
bI00
S'\xb0}z?'
p15
tp16
baa(lp17
F0.16
ag2
(g3
(I0
tp18
g5
tp19
Rp20
(I1
(L1L
L1L
tp21
g12
I00
S'~\xad)?'
p22
tp23
baa(lp24
F0.76
ag2
(g3
(I0
tp25
g5
tp26
Rp27
(I1
(L1L
L1L
tp28
g12
I00
S'\xb0\x17B?'
p29
tp30
baa(lp31
F0.2
ag2
(g3
(I0
tp32
g5
tp33
Rp34
(I1
(L1L
L1L
tp35
g12
I00
S'\x0e\x95)?'
p36
tp37
baa(lp38
F0.08
ag2
(g3
(I0
tp39
g5
tp40
Rp41
(I1
(L1L
L1L
tp42
g12
I00
S'\xac2/?'
p43
tp44
baa(lp45
F0.9199999999999999
ag2
(g3
(I0
tp46
g5
tp47
Rp48
(I1
(L1L
L1L
tp49
g12
I00
S'xbv?'
p50
tp51
baa(lp52
F1.0
aF1.0
aa(lp53
F0.4
ag2
(g3
(I0
tp54
g5
tp55
Rp56
(I1
(L1L
L1L
tp57
g12
I00
S'\xc6l>?'
p58
tp59
baa(lp60
F1.0
aF1.0
aa(lp61
F0.12
ag2
(g3
(I0
tp62
g5
tp63
Rp64
(I1
(L1L
L1L
tp65
g12
I00
S'\xdeX4?'
p66
tp67
baa(lp68
F0.2
ag2
(g3
(I0
tp69
g5
tp70
Rp71
(I1
(L1L
L1L
tp72
g12
I00
S'I\x0cP?'
p73
tp74
baa(lp75
F1.0
aF1.0
aa(lp76
F0.72
ag2
(g3
(I0
tp77
g5
tp78
Rp79
(I1
(L1L
L1L
tp80
g12
I00
S'\xa4\xc79?'
p81
tp82
baa(lp83
F0.8
ag2
(g3
(I0
tp84
g5
tp85
Rp86
(I1
(L1L
L1L
tp87
g12
I00
S'\xfeVi?'
p88
tp89
baa(lp90
F0.62
aF1.0
aa(lp91
F0.44000000000000006
ag2
(g3
(I0
tp92
g5
tp93
Rp94
(I1
(L1L
L1L
tp95
g12
I00
S'\x90#h?'
p96
tp97
baa(lp98
F0.64
ag2
(g3
(I0
tp99
g5
tp100
Rp101
(I1
(L1L
L1L
tp102
g12
I00
S'\x9c+]?'
p103
tp104
baa(lp105
F0.8800000000000001
ag2
(g3
(I0
tp106
g5
tp107
Rp108
(I1
(L1L
L1L
tp109
g12
I00
S'-\x1et?'
p110
tp111
baa(lp112
F0.44000000000000006
ag2
(g3
(I0
tp113
g5
tp114
Rp115
(I1
(L1L
L1L
tp116
g12
I00
S'\xbawG?'
p117
tp118
baa(lp119
F0.48
ag2
(g3
(I0
tp120
g5
tp121
Rp122
(I1
(L1L
L1L
tp123
g12
I00
S'\x90\xafU?'
p124
tp125
baa(lp126
F0.5599999999999999
ag2
(g3
(I0
tp127
g5
tp128
Rp129
(I1
(L1L
L1L
tp130
g12
I00
S'Z\xaa[?'
p131
tp132
baa(lp133
F0.9199999999999999
ag2
(g3
(I0
tp134
g5
tp135
Rp136
(I1
(L1L
L1L
tp137
g12
I00
S'\xbe\xf8f?'
p138
tp139
baa(lp140
F0.2
ag2
(g3
(I0
tp141
g5
tp142
Rp143
(I1
(L1L
L1L
tp144
g12
I00
S'\xd4\x0eW?'
p145
tp146
baa(lp147
F0.44000000000000006
ag2
(g3
(I0
tp148
g5
tp149
Rp150
(I1
(L1L
L1L
tp151
g12
I00
S' \xe8w?'
p152
tp153
baa(lp154
F0.44000000000000006
ag2
(g3
(I0
tp155
g5
tp156
Rp157
(I1
(L1L
L1L
tp158
g12
I00
S'@\xc1q?'
p159
tp160
baa(lp161
F0.76
aF0.8782269745867237
aa(lp162
F0.5599999999999999
ag2
(g3
(I0
tp163
g5
tp164
Rp165
(I1
(L1L
L1L
tp166
g12
I00
S'\xf7\x0c-?'
p167
tp168
baa(lp169
F0.44000000000000006
ag2
(g3
(I0
tp170
g5
tp171
Rp172
(I1
(L1L
L1L
tp173
g12
I00
S'0\xeeG?'
p174
tp175
baa(lp176
F0.52
ag2
(g3
(I0
tp177
g5
tp178
Rp179
(I1
(L1L
L1L
tp180
g12
I00
S'\x96\xd9G?'
p181
tp182
baa(lp183
F0.6
ag2
(g3
(I0
tp184
g5
tp185
Rp186
(I1
(L1L
L1L
tp187
g12
I00
S'\xf4ly?'
p188
tp189
baa(lp190
F0.96
ag2
(g3
(I0
tp191
g5
tp192
Rp193
(I1
(L1L
L1L
tp194
g12
I00
S'\xbaf@?'
p195
tp196
baa(lp197
F0.27999999999999997
ag2
(g3
(I0
tp198
g5
tp199
Rp200
(I1
(L1L
L1L
tp201
g12
I00
S'I\x8av?'
p202
tp203
baa(lp204
F0.24
ag2
(g3
(I0
tp205
g5
tp206
Rp207
(I1
(L1L
L1L
tp208
g12
I00
S'\xf6~N?'
p209
tp210
baa(lp211
F0.16
ag2
(g3
(I0
tp212
g5
tp213
Rp214
(I1
(L1L
L1L
tp215
g12
I00
S'\x9f\xb5\xdc>'
p216
tp217
baa(lp218
F0.4
ag2
(g3
(I0
tp219
g5
tp220
Rp221
(I1
(L1L
L1L
tp222
g12
I00
S'4\xad4?'
p223
tp224
baa(lp225
F0.24
ag2
(g3
(I0
tp226
g5
tp227
Rp228
(I1
(L1L
L1L
tp229
g12
I00
S'P\xe6??'
p230
tp231
baa(lp232
F0.5599999999999999
ag2
(g3
(I0
tp233
g5
tp234
Rp235
(I1
(L1L
L1L
tp236
g12
I00
S'_\xc1g?'
p237
tp238
baa(lp239
F0.52
ag2
(g3
(I0
tp240
g5
tp241
Rp242
(I1
(L1L
L1L
tp243
g12
I00
S'\xd4"^?'
p244
tp245
baa(lp246
F0.52
ag2
(g3
(I0
tp247
g5
tp248
Rp249
(I1
(L1L
L1L
tp250
g12
I00
S'DpK?'
p251
tp252
baa(lp253
F0.48
ag2
(g3
(I0
tp254
g5
tp255
Rp256
(I1
(L1L
L1L
tp257
g12
I00
S'\xf2\xc7\x17?'
p258
tp259
baa(lp260
F0.6
ag2
(g3
(I0
tp261
g5
tp262
Rp263
(I1
(L1L
L1L
tp264
g12
I00
S'\x880S?'
p265
tp266
baa(lp267
F0.2
ag2
(g3
(I0
tp268
g5
tp269
Rp270
(I1
(L1L
L1L
tp271
g12
I00
S'\xdc\x02@?'
p272
tp273
baa(lp274
F0.64
ag2
(g3
(I0
tp275
g5
tp276
Rp277
(I1
(L1L
L1L
tp278
g12
I00
S'F\x17??'
p279
tp280
baa(lp281
F0.9199999999999999
ag2
(g3
(I0
tp282
g5
tp283
Rp284
(I1
(L1L
L1L
tp285
g12
I00
S'-\x112?'
p286
tp287
baa(lp288
F0.27999999999999997
ag2
(g3
(I0
tp289
g5
tp290
Rp291
(I1
(L1L
L1L
tp292
g12
I00
S'\xd8\xe5D?'
p293
tp294
baa(lp295
F0.6
ag2
(g3
(I0
tp296
g5
tp297
Rp298
(I1
(L1L
L1L
tp299
g12
I00
S'\xb0\xc4\\?'
p300
tp301
baa(lp302
F1.0
ag2
(g3
(I0
tp303
g5
tp304
Rp305
(I1
(L1L
L1L
tp306
g12
I00
S"\xf89'?"
p307
tp308
baa(lp309
F0.16
ag2
(g3
(I0
tp310
g5
tp311
Rp312
(I1
(L1L
L1L
tp313
g12
I00
S'0\x9do?'
p314
tp315
baa(lp316
F0.422222222222
ag2
(g3
(I0
tp317
g5
tp318
Rp319
(I1
(L1L
L1L
tp320
g12
I00
S'\xcc}y?'
p321
tp322
baa(lp323
F0.5599999999999999
ag2
(g3
(I0
tp324
g5
tp325
Rp326
(I1
(L1L
L1L
tp327
g12
I00
S'Z\xaa[?'
p328
tp329
baa(lp330
F0.4
aF1.0
aa(lp331
F0.22000000000000003
ag2
(g3
(I0
tp332
g5
tp333
Rp334
(I1
(L1L
L1L
tp335
g12
I00
S'\xa4\xa4W?'
p336
tp337
baa(lp338
F1.0
aF1.0
aa(lp339
F0.24
ag2
(g3
(I0
tp340
g5
tp341
Rp342
(I1
(L1L
L1L
tp343
g12
I00
S'G4Q?'
p344
tp345
baa(lp346
F0.6
ag2
(g3
(I0
tp347
g5
tp348
Rp349
(I1
(L1L
L1L
tp350
g12
I00
S'^\xd3w?'
p351
tp352
baa(lp353
F0.9
ag2
(g3
(I0
tp354
g5
tp355
Rp356
(I1
(L1L
L1L
tp357
g12
I00
S'\xa6kp?'
p358
tp359
baa(lp360
F0.6799999999999999
ag2
(g3
(I0
tp361
g5
tp362
Rp363
(I1
(L1L
L1L
tp364
g12
I00
S'\x1d]e?'
p365
tp366
baa(lp367
F0.76
ag2
(g3
(I0
tp368
g5
tp369
Rp370
(I1
(L1L
L1L
tp371
g12
I00
S'\xd3fD?'
p372
tp373
baa(lp374
F0.8
ag2
(g3
(I0
tp375
g5
tp376
Rp377
(I1
(L1L
L1L
tp378
g12
I00
S'\x10px?'
p379
tp380
baa(lp381
F0.52
ag2
(g3
(I0
tp382
g5
tp383
Rp384
(I1
(L1L
L1L
tp385
g12
I00
S'\xd5\xbd=?'
p386
tp387
baa(lp388
F0.36
ag2
(g3
(I0
tp389
g5
tp390
Rp391
(I1
(L1L
L1L
tp392
g12
I00
S'2\xcbJ?'
p393
tp394
baa(lp395
F0.48
ag2
(g3
(I0
tp396
g5
tp397
Rp398
(I1
(L1L
L1L
tp399
g12
I00
S'N\xc9A?'
p400
tp401
baa(lp402
F0.6799999999999999
ag2
(g3
(I0
tp403
g5
tp404
Rp405
(I1
(L1L
L1L
tp406
g12
I00
S'\xc1\xd9=?'
p407
tp408
baa(lp409
F0.6799999999999999
ag2
(g3
(I0
tp410
g5
tp411
Rp412
(I1
(L1L
L1L
tp413
g12
I00
S'\x83Bj?'
p414
tp415
baa(lp416
F0.72
aF0.9378614873753933
aa(lp417
F0.32
ag2
(g3
(I0
tp418
g5
tp419
Rp420
(I1
(L1L
L1L
tp421
g12
I00
S'?\xc9a?'
p422
tp423
baa(lp424
F0.64
ag2
(g3
(I0
tp425
g5
tp426
Rp427
(I1
(L1L
L1L
tp428
g12
I00
S'A\xb1g?'
p429
tp430
baa(lp431
F0.9199999999999999
ag2
(g3
(I0
tp432
g5
tp433
Rp434
(I1
(L1L
L1L
tp435
g12
I00
S'4\nj?'
p436
tp437
baa(lp438
F0.8800000000000001
ag2
(g3
(I0
tp439
g5
tp440
Rp441
(I1
(L1L
L1L
tp442
g12
I00
S'<\rI?'
p443
tp444
baa(lp445
F0.44000000000000006
ag2
(g3
(I0
tp446
g5
tp447
Rp448
(I1
(L1L
L1L
tp449
g12
I00
S'\xb5\xbb:?'
p450
tp451
baa(lp452
F0.24
ag2
(g3
(I0
tp453
g5
tp454
Rp455
(I1
(L1L
L1L
tp456
g12
I00
S')\x83n?'
p457
tp458
baa(lp459
F0.44000000000000006
ag2
(g3
(I0
tp460
g5
tp461
Rp462
(I1
(L1L
L1L
tp463
g12
I00
S'\xe6\x935?'
p464
tp465
baa(lp466
F0.76
ag2
(g3
(I0
tp467
g5
tp468
Rp469
(I1
(L1L
L1L
tp470
g12
I00
S'\xae\x0eB?'
p471
tp472
baa(lp473
F0.8
aF0.8245687214418234
aa(lp474
F0.44000000000000006
ag2
(g3
(I0
tp475
g5
tp476
Rp477
(I1
(L1L
L1L
tp478
g12
I00
S'\x1c+=?'
p479
tp480
baa(lp481
F0.16
aF0.5359483559048513
aa(lp482
F0.52
ag2
(g3
(I0
tp483
g5
tp484
Rp485
(I1
(L1L
L1L
tp486
g12
I00
S'\xa9"C?'
p487
tp488
baa(lp489
F0.44000000000000006
ag2
(g3
(I0
tp490
g5
tp491
Rp492
(I1
(L1L
L1L
tp493
g12
I00
S'\xc6\xf2\\?'
p494
tp495
baa(lp496
F0.32
ag2
(g3
(I0
tp497
g5
tp498
Rp499
(I1
(L1L
L1L
tp500
g12
I00
S'x]c?'
p501
tp502
baa(lp503
F0.52
ag2
(g3
(I0
tp504
g5
tp505
Rp506
(I1
(L1L
L1L
tp507
g12
I00
S'.\x00p?'
p508
tp509
baa(lp510
F0.36
ag2
(g3
(I0
tp511
g5
tp512
Rp513
(I1
(L1L
L1L
tp514
g12
I00
S'\xac\xc3T?'
p515
tp516
baa(lp517
F0.72
ag2
(g3
(I0
tp518
g5
tp519
Rp520
(I1
(L1L
L1L
tp521
g12
I00
S'\xe4\xc3j?'
p522
tp523
baa(lp524
F0.4
ag2
(g3
(I0
tp525
g5
tp526
Rp527
(I1
(L1L
L1L
tp528
g12
I00
S'\xb8\xfeE?'
p529
tp530
baa(lp531
F0.44000000000000006
ag2
(g3
(I0
tp532
g5
tp533
Rp534
(I1
(L1L
L1L
tp535
g12
I00
S'Y/P?'
p536
tp537
baa(lp538
F0.96
aF1.0
aa.