(lp0
(lp1
F0.6
aF0.869643568207841
aa(lp2
F0.16
aF0.7485882916028042
aa(lp3
F0.76
aF0.6520024509135454
aa(lp4
F0.2
aF0.6381394663128409
aa(lp5
F0.08
aF0.5841434951249609
aa(lp6
F0.9199999999999999
aF0.8656609414286454
aa(lp7
F1.0
aF1.0
aa(lp8
F0.4
aF0.5842363285157748
aa(lp9
F1.0
aF1.0
aa(lp10
F0.12
aF0.4809310294976249
aa(lp11
F0.2
aF0.8069799515606425
aa(lp12
F1.0
aF1.0
aa(lp13
F0.72
aF0.8133360726030494
aa(lp14
F0.8
aF0.8412309956960091
aa(lp15
F0.62
aF1.0
aa(lp16
F0.44000000000000006
aF0.739417326899765
aa(lp17
F0.64
aF0.6628983638481996
aa(lp18
F0.8800000000000001
aF0.9668311072821121
aa(lp19
F0.44000000000000006
aF0.614924342455786
aa(lp20
F0.48
aF0.7027282002772473
aa(lp21
F0.5599999999999999
aF0.8774937723778835
aa(lp22
F0.9199999999999999
aF0.8524525440624988
aa(lp23
F0.2
aF0.821642183314981
aa(lp24
F0.44000000000000006
aF0.7999016698357606
aa(lp25
F0.44000000000000006
aF0.8008281532545573
aa(lp26
F0.76
aF0.9020759823626822
aa(lp27
F0.5599999999999999
aF0.6921099160512381
aa(lp28
F0.44000000000000006
aF0.738868110835432
aa(lp29
F0.52
aF0.703459701833919
aa(lp30
F0.6
aF0.7003961487416221
aa(lp31
F0.96
aF0.6402401570186824
aa(lp32
F0.27999999999999997
aF0.7987474420252372
aa(lp33
F0.24
aF0.65
aa(lp34
F0.16
aF0.2
aa(lp35
F0.4
aF0.7471969696969698
aa(lp36
F0.24
aF0.8292519564380756
aa(lp37
F0.5599999999999999
aF0.86759728893042
aa(lp38
F0.52
aF0.7623529411764706
aa(lp39
F0.52
aF0.6715318670370218
aa(lp40
F0.48
aF0.6836332213186955
aa(lp41
F0.6
aF0.8553264025300367
aa(lp42
F0.2
aF0.4921169850688416
aa(lp43
F0.64
aF0.4670682131781547
aa(lp44
F0.9199999999999999
aF0.5203703703703704
aa(lp45
F0.27999999999999997
aF0.7
aa(lp46
F0.6
aF0.8377250481941056
aa(lp47
F1.0
aF0.7045792525764655
aa(lp48
F0.16
aF0.6476021171948758
aa(lp49
F0.422222222222
aF0.921918639528277
aa(lp50
F0.5599999999999999
aF0.8774937723778835
aa(lp51
F0.4
aF0.9315726881937241
aa(lp52
F0.22000000000000003
aF0.6540433907769552
aa(lp53
F1.0
aF1.0
aa(lp54
F0.24
aF0.7808541636734427
aa(lp55
F0.6
aF0.877259922267152
aa(lp56
F0.9
aF0.9234185583467969
aa(lp57
F0.6799999999999999
aF0.8181128717163422
aa(lp58
F0.76
aF0.7080495342155461
aa(lp59
F0.8
aF0.8973014612056427
aa(lp60
F0.52
aF0.810232439714687
aa(lp61
F0.36
aF0.7260659756078416
aa(lp62
F0.48
aF0.47230498710151825
aa(lp63
F0.6799999999999999
aF0.5116952787458912
aa(lp64
F0.6799999999999999
aF0.772639655747956
aa(lp65
F0.72
aF0.9272507044889515
aa(lp66
F0.32
aF0.5727780314681895
aa(lp67
F0.64
aF0.7400208232676416
aa(lp68
F0.9199999999999999
aF0.8137574461109284
aa(lp69
F0.8800000000000001
aF0.4913133790437918
aa(lp70
F0.44000000000000006
aF0.5325694125635317
aa(lp71
F0.24
aF0.74534827456777
aa(lp72
F0.44000000000000006
aF0.2620192307692308
aa(lp73
F0.76
aF0.7606948540743508
aa(lp74
F0.8
aF0.8245687214406051
aa(lp75
F0.44000000000000006
aF0.2893279007073635
aa(lp76
F0.16
aF0.9166666666666667
aa(lp77
F0.52
aF0.75
aa(lp78
F0.44000000000000006
aF0.6616457268477314
aa(lp79
F0.32
aF0.8014400430500704
aa(lp80
F0.52
aF0.9024646953829866
aa(lp81
F0.36
aF0.518733929537034
aa(lp82
F0.72
aF0.8119629904648195
aa(lp83
F0.4
aF0.75
aa(lp84
F0.44000000000000006
aF0.684517356175971
aa(lp85
F0.96
aF1.0
aa.