(lp0
cnumpy.core.multiarray
_reconstruct
p1
(cnumpy
ndarray
p2
(I0
tp3
S'b'
p4
tp5
Rp6
(I1
(I1
I1
tp7
cnumpy
dtype
p8
(S'f4'
p9
I0
I1
tp10
Rp11
(I3
S'<'
p12
NNNI-1
I-1
I0
tp13
bI00
S'`\xfbt?'
p14
tp15
bag1
(g2
(I0
tp16
g4
tp17
Rp18
(I1
(I1
I1
tp19
g11
I00
S'\xc9u+?'
p20
tp21
bag1
(g2
(I0
tp22
g4
tp23
Rp24
(I1
(I1
I1
tp25
g11
I00
S'$\xd7b?'
p26
tp27
bag1
(g2
(I0
tp28
g4
tp29
Rp30
(I1
(I1
I1
tp31
g11
I00
S"\x9e\x12'?"
p32
tp33
bag1
(g2
(I0
tp34
g4
tp35
Rp36
(I1
(I1
I1
tp37
g11
I00
S'\xb8\xa0=?'
p38
tp39
baF1.0
aF1.0
ag1
(g2
(I0
tp40
g4
tp41
Rp42
(I1
(I1
I1
tp43
g11
I00
S'@\xc3\x1c?'
p44
tp45
baF1.0
ag1
(g2
(I0
tp46
g4
tp47
Rp48
(I1
(I1
I1
tp49
g11
I00
S'm\xf6q?'
p50
tp51
bag1
(g2
(I0
tp52
g4
tp53
Rp54
(I1
(I1
I1
tp55
g11
I00
S'\x07\rH?'
p56
tp57
baF1.0
aF1.0
ag1
(g2
(I0
tp58
g4
tp59
Rp60
(I1
(I1
I1
tp61
g11
I00
S'\xfd\xadR?'
p62
tp63
baF1.0
ag1
(g2
(I0
tp64
g4
tp65
Rp66
(I1
(I1
I1
tp67
g11
I00
S'\x00\x00\x80?'
p68
tp69
bag1
(g2
(I0
tp70
g4
tp71
Rp72
(I1
(I1
I1
tp73
g11
I00
S'\x0e/^?'
p74
tp75
bag1
(g2
(I0
tp76
g4
tp77
Rp78
(I1
(I1
I1
tp79
g11
I00
S'Z<h?'
p80
tp81
bag1
(g2
(I0
tp82
g4
tp83
Rp84
(I1
(I1
I1
tp85
g11
I00
S'\xa7\x19V?'
p86
tp87
baF1.0
ag1
(g2
(I0
tp88
g4
tp89
Rp90
(I1
(I1
I1
tp91
g11
I00
S'rK^?'
p92
tp93
bag1
(g2
(I0
tp94
g4
tp95
Rp96
(I1
(I1
I1
tp97
g11
I00
S'|\xf1M?'
p98
tp99
bag1
(g2
(I0
tp100
g4
tp101
Rp102
(I1
(I1
I1
tp103
g11
I00
S'f\x89_?'
p104
tp105
bag1
(g2
(I0
tp106
g4
tp107
Rp108
(I1
(I1
I1
tp109
g11
I00
S'@\xd0o?'
p110
tp111
bag1
(g2
(I0
tp112
g4
tp113
Rp114
(I1
(I1
I1
tp115
g11
I00
S'\xfb\x89q?'
p116
tp117
baF1.0
aF0.5567446230460146
ag1
(g2
(I0
tp118
g4
tp119
Rp120
(I1
(I1
I1
tp121
g11
I00
S'\xe5\x03>?'
p122
tp123
bag1
(g2
(I0
tp124
g4
tp125
Rp126
(I1
(I1
I1
tp127
g11
I00
S'\xff\xe7L?'
p128
tp129
bag1
(g2
(I0
tp130
g4
tp131
Rp132
(I1
(I1
I1
tp133
g11
I00
S'\xe7\xd9r?'
p134
tp135
bag1
(g2
(I0
tp136
g4
tp137
Rp138
(I1
(I1
I1
tp139
g11
I00
S'\x89\x8d7?'
p140
tp141
baF1.0
ag1
(g2
(I0
tp142
g4
tp143
Rp144
(I1
(I1
I1
tp145
g11
I00
S"\x08'M?"
p146
tp147
bag1
(g2
(I0
tp148
g4
tp149
Rp150
(I1
(I1
I1
tp151
g11
I00
S'\x9f\t\xe8>'
p152
tp153
bag1
(g2
(I0
tp154
g4
tp155
Rp156
(I1
(I1
I1
tp157
g11
I00
S'a\x15,?'
p158
tp159
baF0.794295664056748
aF1.0
ag1
(g2
(I0
tp160
g4
tp161
Rp162
(I1
(I1
I1
tp163
g11
I00
S'\xd4"^?'
p164
tp165
bag1
(g2
(I0
tp166
g4
tp167
Rp168
(I1
(I1
I1
tp169
g11
I00
S'm\xea;?'
p170
tp171
bag1
(g2
(I0
tp172
g4
tp173
Rp174
(I1
(I1
I1
tp175
g11
I00
S'\x18fA?'
p176
tp177
bag1
(g2
(I0
tp178
g4
tp179
Rp180
(I1
(I1
I1
tp181
g11
I00
S'\x0fa&?'
p182
tp183
bag1
(g2
(I0
tp184
g4
tp185
Rp186
(I1
(I1
I1
tp187
g11
I00
S'\xc4\x88\x19?'
p188
tp189
bag1
(g2
(I0
tp190
g4
tp191
Rp192
(I1
(I1
I1
tp193
g11
I00
S'\n\x187?'
p194
tp195
bag1
(g2
(I0
tp196
g4
tp197
Rp198
(I1
(I1
I1
tp199
g11
I00
S'\x12\xe5P?'
p200
tp201
baF1.0
ag1
(g2
(I0
tp202
g4
tp203
Rp204
(I1
(I1
I1
tp205
g11
I00
S'_\x899?'
p206
tp207
bag1
(g2
(I0
tp208
g4
tp209
Rp210
(I1
(I1
I1
tp211
g11
I00
S'm\x0f\x1e?'
p212
tp213
bag1
(g2
(I0
tp214
g4
tp215
Rp216
(I1
(I1
I1
tp217
g11
I00
S'\xef\xa2j?'
p218
tp219
bag1
(g2
(I0
tp220
g4
tp221
Rp222
(I1
(I1
I1
tp223
g11
I00
S'\x97\xfbr?'
p224
tp225
bag1
(g2
(I0
tp226
g4
tp227
Rp228
(I1
(I1
I1
tp229
g11
I00
S'rK^?'
p230
tp231
baF1.0
ag1
(g2
(I0
tp232
g4
tp233
Rp234
(I1
(I1
I1
tp235
g11
I00
S'7\x98[?'
p236
tp237
baF1.0
ag1
(g2
(I0
tp238
g4
tp239
Rp240
(I1
(I1
I1
tp241
g11
I00
S'\xd5(I?'
p242
tp243
bag1
(g2
(I0
tp244
g4
tp245
Rp246
(I1
(I1
I1
tp247
g11
I00
S'\xe3\xe1}?'
p248
tp249
baF1.0
ag1
(g2
(I0
tp250
g4
tp251
Rp252
(I1
(I1
I1
tp253
g11
I00
S'\x8anu?'
p254
tp255
bag1
(g2
(I0
tp256
g4
tp257
Rp258
(I1
(I1
I1
tp259
g11
I00
S'\xcf\x8fD?'
p260
tp261
baF1.0
ag1
(g2
(I0
tp262
g4
tp263
Rp264
(I1
(I1
I1
tp265
g11
I00
S'\xa0\x1a<?'
p266
tp267
baF0.8393651034971418
ag1
(g2
(I0
tp268
g4
tp269
Rp270
(I1
(I1
I1
tp271
g11
I00
S'FnJ?'
p272
tp273
bag1
(g2
(I0
tp274
g4
tp275
Rp276
(I1
(I1
I1
tp277
g11
I00
S'u\x1f\x12?'
p278
tp279
bag1
(g2
(I0
tp280
g4
tp281
Rp282
(I1
(I1
I1
tp283
g11
I00
S'\x06\x85T?'
p284
tp285
baF1.0
ag1
(g2
(I0
tp286
g4
tp287
Rp288
(I1
(I1
I1
tp289
g11
I00
S'\x11\x10Y?'
p290
tp291
bag1
(g2
(I0
tp292
g4
tp293
Rp294
(I1
(I1
I1
tp295
g11
I00
S'\xe8\x85u?'
p296
tp297
bag1
(g2
(I0
tp298
g4
tp299
Rp300
(I1
(I1
I1
tp301
g11
I00
S'\x98qY?'
p302
tp303
bag1
(g2
(I0
tp304
g4
tp305
Rp306
(I1
(I1
I1
tp307
g11
I00
S'\xd8\xebL?'
p308
tp309
bag1
(g2
(I0
tp310
g4
tp311
Rp312
(I1
(I1
I1
tp313
g11
I00
S'\xff\xef,?'
p314
tp315
bag1
(g2
(I0
tp316
g4
tp317
Rp318
(I1
(I1
I1
tp319
g11
I00
S's\x85m?'
p320
tp321
bag1
(g2
(I0
tp322
g4
tp323
Rp324
(I1
(I1
I1
tp325
g11
I00
S'HX7?'
p326
tp327
bag1
(g2
(I0
tp328
g4
tp329
Rp330
(I1
(I1
I1
tp331
g11
I00
S'\xc5\xdd%?'
p332
tp333
baF1.0
ag1
(g2
(I0
tp334
g4
tp335
Rp336
(I1
(I1
I1
tp337
g11
I00
S'D(#?'
p338
tp339
baF0.6526278218109809
ag1
(g2
(I0
tp340
g4
tp341
Rp342
(I1
(I1
I1
tp343
g11
I00
S'\xf9ZC?'
p344
tp345
bag1
(g2
(I0
tp346
g4
tp347
Rp348
(I1
(I1
I1
tp349
g11
I00
S'\xec\xd6q?'
p350
tp351
bag1
(g2
(I0
tp352
g4
tp353
Rp354
(I1
(I1
I1
tp355
g11
I00
S'J\x0ba?'
p356
tp357
bag1
(g2
(I0
tp358
g4
tp359
Rp360
(I1
(I1
I1
tp361
g11
I00
S']\x00`?'
p362
tp363
bag1
(g2
(I0
tp364
g4
tp365
Rp366
(I1
(I1
I1
tp367
g11
I00
S'Y"H?'
p368
tp369
bag1
(g2
(I0
tp370
g4
tp371
Rp372
(I1
(I1
I1
tp373
g11
I00
S'\xc8\x87U?'
p374
tp375
bag1
(g2
(I0
tp376
g4
tp377
Rp378
(I1
(I1
I1
tp379
g11
I00
S'p\xfd\x0b?'
p380
tp381
bag1
(g2
(I0
tp382
g4
tp383
Rp384
(I1
(I1
I1
tp385
g11
I00
S'3\xce`?'
p386
tp387
baF1.0
a.